; Function Attrs: nofree norecurse nosync nounwind memory(readwrite, inaccessiblemem: none) uwtable
define internal void @SDL_Blit_XBGR8888_ARGB8888_Modulate(ptr noundef captures(none) %0) #0 {
  %2 = getelementptr inbounds nuw i8, ptr %0, i64 112
  %3 = load i32, ptr %2, align 8
  %4 = getelementptr inbounds nuw i8, ptr %0, i64 120
  %5 = load i8, ptr %4, align 8
  %6 = zext i8 %5 to i32
  %7 = getelementptr inbounds nuw i8, ptr %0, i64 121
  %8 = load i8, ptr %7, align 1
  %9 = zext i8 %8 to i32
  %10 = getelementptr inbounds nuw i8, ptr %0, i64 122
  %11 = load i8, ptr %10, align 2
  %12 = zext i8 %11 to i32
  %13 = getelementptr inbounds nuw i8, ptr %0, i64 123
  %14 = load i8, ptr %13, align 1
  %15 = getelementptr inbounds nuw i8, ptr %0, i64 52
  %16 = load i32, ptr %15, align 4
  %17 = add nsw i32 %16, -1
  store i32 %17, ptr %15, align 4
  %.not5157 = icmp eq i32 %16, 0
  br i1 %.not5157, label %._crit_edge60, label %.lr.ph59

.lr.ph59:                                         ; preds = %1
  %18 = and i32 %3, 2
  %.not = icmp eq i32 %18, 0
  %19 = zext i8 %14 to i32
  %20 = getelementptr inbounds nuw i8, ptr %0, i64 8
  %21 = getelementptr inbounds nuw i8, ptr %0, i64 40
  %22 = getelementptr inbounds nuw i8, ptr %0, i64 48
  %23 = and i32 %3, 1
  %.not53 = icmp eq i32 %23, 0
  %24 = shl nuw i32 %19, 24
  %25 = select i1 %.not, i32 -16777216, i32 %24
  %26 = getelementptr inbounds nuw i8, ptr %0, i64 24
  %27 = getelementptr inbounds nuw i8, ptr %0, i64 56
  %28 = load i32, ptr %22, align 8
  %29 = icmp eq i32 %28, 0
  br i1 %29, label %.lr.ph59.split.us, label %.lr.ph59.split

.lr.ph59.split.us:                                ; preds = %.lr.ph59
  %30 = load i32, ptr %26, align 8
  %31 = sext i32 %30 to i64
  %32 = load i32, ptr %27, align 8
  %33 = sext i32 %32 to i64
  %.promoted = load ptr, ptr %20, align 8
  %.promoted61 = load ptr, ptr %21, align 8
  %34 = zext i32 %16 to i64
  %35 = mul nsw i64 %34, %31
  %scevgep = getelementptr i8, ptr %.promoted, i64 %35
  %36 = mul nsw i64 %34, %33
  %scevgep68 = getelementptr i8, ptr %.promoted61, i64 %36
  store ptr %scevgep, ptr %20, align 8
  store ptr %scevgep68, ptr %21, align 8
  store i32 -1, ptr %15, align 4
  br label %._crit_edge60

.lr.ph59.splitthread-pre-split:                   ; preds = %._crit_edge
  %.pr = load i32, ptr %22, align 8
  br label %.lr.ph59.split

.lr.ph59.split:                                   ; preds = %.lr.ph59, %.lr.ph59.splitthread-pre-split
  %37 = phi i32 [ %.pr, %.lr.ph59.splitthread-pre-split ], [ %28, %.lr.ph59 ]
  %.not5254 = icmp eq i32 %37, 0
  br i1 %.not5254, label %._crit_edge, label %.lr.ph

.lr.ph:                                           ; preds = %.lr.ph59.split
  %38 = add nsw i32 %37, -1
  %39 = load ptr, ptr %21, align 8
  %40 = load ptr, ptr %20, align 8
  br i1 %.not53, label %.lr.ph.split.us, label %.lr.ph.split

.lr.ph.split.us:                                  ; preds = %.lr.ph, %.lr.ph.split.us
  %41 = phi i32 [ %53, %.lr.ph.split.us ], [ %38, %.lr.ph ]
  %.04856.us = phi ptr [ %52, %.lr.ph.split.us ], [ %39, %.lr.ph ]
  %.04955.us = phi ptr [ %51, %.lr.ph.split.us ], [ %40, %.lr.ph ]
  %42 = load i32, ptr %.04955.us, align 4
  %43 = lshr i32 %42, 16
  %44 = and i32 %43, 255
  %45 = and i32 %42, 65280
  %46 = shl i32 %42, 16
  %47 = and i32 %46, 16711680
  %48 = or disjoint i32 %47, %45
  %49 = or disjoint i32 %48, %44
  %50 = or disjoint i32 %49, %25
  store i32 %50, ptr %.04856.us, align 4
  %51 = getelementptr inbounds nuw i8, ptr %.04955.us, i64 4
  %52 = getelementptr inbounds nuw i8, ptr %.04856.us, i64 4
  %53 = add nsw i32 %41, -1
  %.not52.us = icmp eq i32 %41, 0
  br i1 %.not52.us, label %._crit_edge, label %.lr.ph.split.us, !llvm.loop !95

.lr.ph.split:                                     ; preds = %.lr.ph, %.lr.ph.split
  %54 = phi i32 [ %84, %.lr.ph.split ], [ %38, %.lr.ph ]
  %.04856 = phi ptr [ %83, %.lr.ph.split ], [ %39, %.lr.ph ]
  %.04955 = phi ptr [ %82, %.lr.ph.split ], [ %40, %.lr.ph ]
  %55 = load i32, ptr %.04955, align 4
  %56 = lshr i32 %55, 16
  %57 = and i32 %56, 255
  %58 = lshr i32 %55, 8
  %59 = and i32 %58, 255
  %60 = and i32 %55, 255
  %61 = mul nuw nsw i32 %60, %6
  %62 = add nuw nsw i32 %61, 1
  %63 = mul nuw nsw i32 %59, %9
  %64 = add nuw nsw i32 %63, 1
  %65 = lshr i32 %64, 8
  %66 = and i32 %65, 255
  %67 = add nuw nsw i32 %66, %64
  %68 = and i32 %67, 65280
  %69 = mul nuw nsw i32 %57, %12
  %70 = add nuw nsw i32 %69, 1
  %71 = lshr i32 %70, 8
  %72 = and i32 %71, 255
  %73 = add nuw nsw i32 %72, %70
  %74 = lshr i32 %73, 8
  %75 = and i32 %74, 255
  %76 = shl nuw nsw i32 %62, 8
  %.mask = and i32 %62, 65280
  %77 = add nuw nsw i32 %.mask, %76
  %78 = and i32 %77, 16711680
  %79 = or disjoint i32 %78, %68
  %80 = or disjoint i32 %79, %75
  %81 = or disjoint i32 %80, %25
  store i32 %81, ptr %.04856, align 4
  %82 = getelementptr inbounds nuw i8, ptr %.04955, i64 4
  %83 = getelementptr inbounds nuw i8, ptr %.04856, i64 4
  %84 = add nsw i32 %54, -1
  %.not52 = icmp eq i32 %54, 0
  br i1 %.not52, label %._crit_edge, label %.lr.ph.split, !llvm.loop !95

._crit_edge:                                      ; preds = %.lr.ph.split, %.lr.ph.split.us, %.lr.ph59.split
  %85 = load i32, ptr %26, align 8
  %86 = load ptr, ptr %20, align 8
  %87 = sext i32 %85 to i64
  %88 = getelementptr inbounds i8, ptr %86, i64 %87
  store ptr %88, ptr %20, align 8
  %89 = load i32, ptr %27, align 8
  %90 = load ptr, ptr %21, align 8
  %91 = sext i32 %89 to i64
  %92 = getelementptr inbounds i8, ptr %90, i64 %91
  store ptr %92, ptr %21, align 8
  %93 = load i32, ptr %15, align 4
  %94 = add nsw i32 %93, -1
  store i32 %94, ptr %15, align 4
  %.not51 = icmp eq i32 %93, 0
  br i1 %.not51, label %._crit_edge60, label %.lr.ph59.splitthread-pre-split, !llvm.loop !96

._crit_edge60:                                    ; preds = %._crit_edge, %.lr.ph59.split.us, %1
  ret void
}